target datalayout = "e-m:e-p270:32:32-p271:32:32-p272:64:64-i64:64-i128:128-f80:128-n8:16:32:64-S128"
target triple = "x86_64-pc-linux-gnu"

@.str = private unnamed_addr constant [44 x i8] c"../openssl/ssl/record/methods/tlsany_meth.c\00", align 1
@__func__.tls_any_set_crypto_state = private unnamed_addr constant [25 x i8] c"tls_any_set_crypto_state\00", align 1

; Function Attrs: nounwind uwtable
define internal i32 @tls_any_set_crypto_state(ptr noundef %0, i32 noundef %1, ptr noundef %2, i64 noundef %3, ptr noundef %4, i64 noundef %5, ptr noundef %6, i64 noundef %7, ptr noundef %8, i64 noundef %9, i32 noundef %10, ptr noundef %11, ptr noundef %12) #0 {
  %14 = alloca i32, align 4
  %15 = alloca ptr, align 8
  %16 = alloca i32, align 4
  %17 = alloca ptr, align 8
  %18 = alloca i64, align 8
  %19 = alloca ptr, align 8
  %20 = alloca i64, align 8
  %21 = alloca ptr, align 8
  %22 = alloca i64, align 8
  %23 = alloca ptr, align 8
  %24 = alloca i64, align 8
  %25 = alloca i32, align 4
  %26 = alloca ptr, align 8
  %27 = alloca ptr, align 8
  store ptr %0, ptr %15, align 8, !tbaa !3
  store i32 %1, ptr %16, align 4, !tbaa !8
  store ptr %2, ptr %17, align 8, !tbaa !10
  store i64 %3, ptr %18, align 8, !tbaa !12
  store ptr %4, ptr %19, align 8, !tbaa !10
  store i64 %5, ptr %20, align 8, !tbaa !12
  store ptr %6, ptr %21, align 8, !tbaa !10
  store i64 %7, ptr %22, align 8, !tbaa !12
  store ptr %8, ptr %23, align 8, !tbaa !14
  store i64 %9, ptr %24, align 8, !tbaa !12
  store i32 %10, ptr %25, align 4, !tbaa !8
  store ptr %11, ptr %26, align 8, !tbaa !16
  store ptr %12, ptr %27, align 8, !tbaa !18
  %28 = load i32, ptr %16, align 4, !tbaa !8
  %29 = icmp ne i32 %28, 0
  br i1 %29, label %30, label %31

30:                                               ; preds = %13
  call void @ERR_new()
  call void @ERR_set_debug(ptr noundef @.str, i32 noundef 28, ptr noundef @__func__.tls_any_set_crypto_state)
  call void (i32, i32, ptr, ...) @ERR_set_error(i32 noundef 20, i32 noundef 786691, ptr noundef null)
  store i32 -2, ptr %14, align 4
  br label %32

31:                                               ; preds = %13
  store i32 1, ptr %14, align 4
  br label %32

32:                                               ; preds = %31, %30
  %33 = load i32, ptr %14, align 4
  ret i32 %33
}