; Function Attrs: nounwind uwtable
define internal range(i32 -2, 2) i32 @tls_any_set_crypto_state(ptr readnone captures(none) %0, i32 noundef %1, ptr readnone captures(none) %2, i64 %3, ptr readnone captures(none) %4, i64 %5, ptr readnone captures(none) %6, i64 %7, ptr readnone captures(none) %8, i64 %9, i32 %10, ptr readnone captures(none) %11, ptr readnone captures(none) %12) #0 {
  %.not = icmp eq i32 %1, 0
  br i1 %.not, label %15, label %14

14:                                               ; preds = %13
  tail call void @ERR_new() #5
  tail call void @ERR_set_debug(ptr noundef nonnull @.str, i32 noundef 28, ptr noundef nonnull @__func__.tls_any_set_crypto_state) #5
  tail call void (i32, i32, ptr, ...) @ERR_set_error(i32 noundef 20, i32 noundef 786691, ptr noundef null) #5
  br label %15

15:                                               ; preds = %13, %14
  %.0 = phi i32 [ -2, %14 ], [ 1, %13 ]
  ret i32 %.0
}